target datalayout = "e-m:e-p270:32:32-p271:32:32-p272:64:64-i64:64-i128:128-f80:128-n8:16:32:64-S128"
target triple = "x86_64-pc-linux-gnu"

%"class.icu_77::number::impl::DecNum" = type { %"class.icu_77::MaybeStackHeaderAndArray", %struct.decContext, [4 x i8] }
%"class.icu_77::MaybeStackHeaderAndArray" = type <{ ptr, i32, i8, [3 x i8], %struct.decNumber, [34 x i8], [2 x i8] }>
%struct.decNumber = type { i32, i32, i8, [1 x i8] }
%struct.decContext = type { i32, i32, i32, i32, i32, i32, i8 }

; Function Attrs: mustprogress nounwind uwtable
define linkonce_odr void @_ZN6icu_7724MaybeStackHeaderAndArrayI9decNumbercLi34EEC2Ev(ptr noundef nonnull align 8 dereferenceable(62) %0) unnamed_addr #0 comdat align 2 {
  %2 = alloca ptr, align 8
  store ptr %0, ptr %2, align 8, !tbaa !48
  %3 = load ptr, ptr %2, align 8
  %4 = getelementptr inbounds nuw %"class.icu_77::MaybeStackHeaderAndArray", ptr %3, i32 0, i32 0
  %5 = getelementptr inbounds nuw %"class.icu_77::MaybeStackHeaderAndArray", ptr %3, i32 0, i32 4
  store ptr %5, ptr %4, align 8, !tbaa !50
  %6 = getelementptr inbounds nuw %"class.icu_77::MaybeStackHeaderAndArray", ptr %3, i32 0, i32 1
  store i32 34, ptr %6, align 8, !tbaa !51
  %7 = getelementptr inbounds nuw %"class.icu_77::MaybeStackHeaderAndArray", ptr %3, i32 0, i32 2
  store i8 0, ptr %7, align 4, !tbaa !52
  ret void
}

; Function Attrs: mustprogress uwtable
define void @_ZN6icu_776number4impl6DecNumC2Ev(ptr noundef nonnull align 8 dereferenceable(92) %0) unnamed_addr #1 align 2 personality ptr @__gxx_personality_v0 {
  %2 = alloca ptr, align 8
  %3 = alloca ptr, align 8
  %4 = alloca i32, align 4
  store ptr %0, ptr %2, align 8, !tbaa !40
  %5 = load ptr, ptr %2, align 8
  %6 = getelementptr inbounds nuw %"class.icu_77::number::impl::DecNum", ptr %5, i32 0, i32 0
  call void @_ZN6icu_7724MaybeStackHeaderAndArrayI9decNumbercLi34EEC2Ev(ptr noundef nonnull align 8 dereferenceable(62) %6)
  %7 = getelementptr inbounds nuw %"class.icu_77::number::impl::DecNum", ptr %5, i32 0, i32 1
  %8 = invoke ptr @uprv_decContextDefault_77(ptr noundef %7, i32 noundef 0)
          to label %9 unwind label %15

9:                                                ; preds = %1
  %10 = getelementptr inbounds nuw %"class.icu_77::number::impl::DecNum", ptr %5, i32 0, i32 1
  %11 = invoke ptr @uprv_decContextSetRounding_77(ptr noundef %10, i32 noundef 3)
          to label %12 unwind label %15

12:                                               ; preds = %9
  %13 = getelementptr inbounds nuw %"class.icu_77::number::impl::DecNum", ptr %5, i32 0, i32 1
  %14 = getelementptr inbounds nuw %struct.decContext, ptr %13, i32 0, i32 4
  store i32 0, ptr %14, align 8, !tbaa !42
  ret void

15:                                               ; preds = %9, %1
  %16 = landingpad { ptr, i32 }
          cleanup
  %17 = extractvalue { ptr, i32 } %16, 0
  store ptr %17, ptr %3, align 8
  %18 = extractvalue { ptr, i32 } %16, 1
  store i32 %18, ptr %4, align 4
  call void @_ZN6icu_7724MaybeStackHeaderAndArrayI9decNumbercLi34EED2Ev(ptr noundef nonnull align 8 dereferenceable(62) %6) #12
  br label %19

19:                                               ; preds = %15
  %20 = load ptr, ptr %3, align 8
  %21 = load i32, ptr %4, align 4
  %22 = insertvalue { ptr, i32 } poison, ptr %20, 0
  %23 = insertvalue { ptr, i32 } %22, i32 %21, 1
  resume { ptr, i32 } %23
}