; Function Attrs: mustprogress uwtable
define void @_ZN6icu_776number4impl6DecNumC2Ev(ptr noundef nonnull align 8 dereferenceable(92) %0) unnamed_addr #1 align 2 personality ptr @__gxx_personality_v0 {
  %2 = getelementptr inbounds nuw i8, ptr %0, i64 16
  store ptr %2, ptr %0, align 8, !tbaa !24
  %3 = getelementptr inbounds nuw i8, ptr %0, i64 8
  store i32 34, ptr %3, align 8, !tbaa !27
  %4 = getelementptr inbounds nuw i8, ptr %0, i64 12
  store i8 0, ptr %4, align 4, !tbaa !28
  %5 = getelementptr inbounds nuw i8, ptr %0, i64 64
  %6 = invoke ptr @uprv_decContextDefault_77(ptr noundef nonnull %5, i32 noundef 0)
          to label %7 unwind label %11

7:                                                ; preds = %1
  %8 = invoke ptr @uprv_decContextSetRounding_77(ptr noundef nonnull %5, i32 noundef 3)
          to label %9 unwind label %11

9:                                                ; preds = %7
  %10 = getelementptr inbounds nuw i8, ptr %0, i64 80
  store i32 0, ptr %10, align 8, !tbaa !29
  ret void

11:                                               ; preds = %7, %1
  %12 = landingpad { ptr, i32 }
          cleanup
  tail call void @_ZN6icu_7724MaybeStackHeaderAndArrayI9decNumbercLi34EED2Ev(ptr noundef nonnull align 8 dereferenceable(62) %0) #14
  resume { ptr, i32 } %12
}